c__builtin__
set
p0
((lp1
ccopy_reg
_reconstructor
p2
(c__main__
Contact
p3
c__builtin__
object
p4
Ntp5
Rp6
(dp7
S'cell'
p8
S''
p9
sS'home'
p10
S'7047798391'
p11
sS'work'
p12
S'9802537883'
p13
sS'name'
p14
S'Jesslyn'
p15
sbatp16
Rp17
.